; Function Attrs: mustprogress nounwind uwtable
define hidden noundef ptr @_ZN14InitializeNode16make_raw_addressElP8PhaseGVN(ptr nocapture noundef nonnull readonly align 8 dereferenceable(73) %0, i64 noundef %1, ptr noundef %2) local_unnamed_addr #1 align 2 {
  %4 = getelementptr inbounds i8, ptr %0, i64 8
  %5 = load ptr, ptr %4, align 8
  %6 = getelementptr inbounds i8, ptr %5, i64 40
  %7 = load ptr, ptr %6, align 8
  %.not = icmp eq i64 %1, 0
  br i1 %.not, label %40, label %8

8:                                                ; preds = %3
  %9 = getelementptr inbounds i8, ptr %2, i64 16
  %10 = load ptr, ptr %9, align 8
  %11 = tail call align 8 ptr @llvm.threadlocal.address.p0(ptr align 8 @_ZN6Thread12_thr_currentE)
  %12 = load ptr, ptr %11, align 8
  %13 = getelementptr inbounds i8, ptr %12, i64 1808
  %14 = load ptr, ptr %13, align 8
  %15 = getelementptr inbounds i8, ptr %14, i64 128
  %16 = load ptr, ptr %15, align 8
  %17 = getelementptr inbounds i8, ptr %16, i64 728
  %18 = load ptr, ptr %17, align 8
  %19 = getelementptr inbounds i8, ptr %18, i64 40
  %20 = load ptr, ptr %19, align 8
  %21 = getelementptr inbounds i8, ptr %18, i64 32
  %22 = load ptr, ptr %21, align 8
  %23 = ptrtoint ptr %20 to i64
  %24 = ptrtoint ptr %22 to i64
  %25 = sub i64 %23, %24
  %.not.i.i.i = icmp ult i64 %25, 56
  br i1 %.not.i.i.i, label %28, label %26

26:                                               ; preds = %8
  %27 = getelementptr inbounds i8, ptr %22, i64 56
  store ptr %27, ptr %21, align 8
  br label %_ZN4NodenwEm.exit

28:                                               ; preds = %8
  %29 = tail call noundef ptr @_ZN5Arena4growEmN17AllocFailStrategy13AllocFailEnumE(ptr noundef nonnull align 8 dereferenceable(48) %18, i64 noundef 56, i32 noundef 0) #13
  br label %_ZN4NodenwEm.exit

_ZN4NodenwEm.exit:                                ; preds = %26, %28
  %.0.i.i.i = phi ptr [ %22, %26 ], [ %29, %28 ]
  %30 = icmp eq ptr %.0.i.i.i, null
  br i1 %30, label %36, label %31

31:                                               ; preds = %_ZN4NodenwEm.exit
  %32 = getelementptr inbounds i8, ptr %10, i64 744
  %33 = load ptr, ptr %32, align 8
  %34 = tail call noundef ptr @_ZN11PhaseValues7longconEl(ptr noundef nonnull align 8 dereferenceable(2400) %2, i64 noundef %1) #13
  tail call void @_ZN4NodeC2EPS_S0_S0_S0_(ptr noundef nonnull align 8 dereferenceable(52) %.0.i.i.i, ptr noundef null, ptr noundef %33, ptr noundef %7, ptr noundef %34) #13
  store ptr getelementptr inbounds inrange(-16, 192) (i8, ptr @_ZTV8AddPNode, i64 16), ptr %.0.i.i.i, align 8
  %35 = getelementptr inbounds i8, ptr %.0.i.i.i, i64 44
  store i32 512, ptr %35, align 4
  br label %36

36:                                               ; preds = %31, %_ZN4NodenwEm.exit
  %37 = load ptr, ptr %2, align 8
  %38 = load ptr, ptr %37, align 8
  %39 = tail call noundef ptr %38(ptr noundef nonnull align 8 dereferenceable(2400) %2, ptr noundef %.0.i.i.i) #13
  br label %40

40:                                               ; preds = %36, %3
  %.0 = phi ptr [ %39, %36 ], [ %7, %3 ]
  ret ptr %.0
}